target datalayout = "e-m:e-p270:32:32-p271:32:32-p272:64:64-i64:64-i128:128-f80:128-n8:16:32:64-S128"
target triple = "x86_64-pc-linux-gnu"

%struct.mbedtls_rsa_context = type { i32, i64, %struct.mbedtls_mpi, %struct.mbedtls_mpi, %struct.mbedtls_mpi, %struct.mbedtls_mpi, %struct.mbedtls_mpi, %struct.mbedtls_mpi, %struct.mbedtls_mpi, %struct.mbedtls_mpi, %struct.mbedtls_mpi, %struct.mbedtls_mpi, %struct.mbedtls_mpi, %struct.mbedtls_mpi, %struct.mbedtls_mpi, i32, i32 }
%struct.mbedtls_mpi = type { ptr, i16, i16 }
%"class.LIEF::PE::RsaInfo" = type { ptr }

; Function Attrs: mustprogress nounwind uwtable
define void @_ZN4LIEF2PE7RsaInfoC2ERKS1_(ptr noundef nonnull align 8 dereferenceable(8) %0, ptr noundef nonnull align 8 dereferenceable(8) %1) unnamed_addr #0 align 2 {
  %3 = alloca ptr, align 8
  %4 = alloca ptr, align 8
  %5 = alloca ptr, align 8
  %6 = alloca ptr, align 8
  store ptr %0, ptr %3, align 8, !tbaa !3
  store ptr %1, ptr %4, align 8, !tbaa !3
  %7 = load ptr, ptr %3, align 8
  %8 = load ptr, ptr %4, align 8, !tbaa !3
  %9 = getelementptr inbounds nuw %"class.LIEF::PE::RsaInfo", ptr %8, i32 0, i32 0
  %10 = load ptr, ptr %9, align 8, !tbaa !19
  %11 = icmp ne ptr %10, null
  br i1 %11, label %12, label %33

12:                                               ; preds = %2
  call void @llvm.lifetime.start.p0(i64 8, ptr %5) #10
  %13 = load ptr, ptr %4, align 8, !tbaa !3
  %14 = getelementptr inbounds nuw %"class.LIEF::PE::RsaInfo", ptr %13, i32 0, i32 0
  %15 = load ptr, ptr %14, align 8, !tbaa !19
  store ptr %15, ptr %5, align 8, !tbaa !9
  call void @llvm.lifetime.start.p0(i64 8, ptr %6) #10
  %16 = call noalias noundef nonnull ptr @_Znwm(i64 noundef 232) #11
  call void @llvm.memset.p0.i64(ptr align 16 %16, i8 0, i64 232, i1 false)
  store ptr %16, ptr %6, align 8, !tbaa !9
  %17 = load ptr, ptr %6, align 8, !tbaa !9
  call void @mbedtls_rsa_init(ptr noundef %17)
  %18 = load ptr, ptr %6, align 8, !tbaa !9
  %19 = load ptr, ptr %5, align 8, !tbaa !9
  %20 = getelementptr inbounds nuw %struct.mbedtls_rsa_context, ptr %19, i32 0, i32 15
  %21 = load i32, ptr %20, align 8, !tbaa !11
  %22 = load ptr, ptr %5, align 8, !tbaa !9
  %23 = getelementptr inbounds nuw %struct.mbedtls_rsa_context, ptr %22, i32 0, i32 16
  %24 = load i32, ptr %23, align 4, !tbaa !18
  %25 = call i32 @mbedtls_rsa_set_padding(ptr noundef %18, i32 noundef %21, i32 noundef %24)
  %26 = load ptr, ptr %6, align 8, !tbaa !9
  %27 = load ptr, ptr %5, align 8, !tbaa !9
  %28 = call i32 @mbedtls_rsa_copy(ptr noundef %26, ptr noundef %27)
  %29 = load ptr, ptr %6, align 8, !tbaa !9
  %30 = call i32 @mbedtls_rsa_complete(ptr noundef %29)
  %31 = load ptr, ptr %6, align 8, !tbaa !9
  %32 = getelementptr inbounds nuw %"class.LIEF::PE::RsaInfo", ptr %7, i32 0, i32 0
  store ptr %31, ptr %32, align 8, !tbaa !19
  call void @llvm.lifetime.end.p0(i64 8, ptr %6) #10
  call void @llvm.lifetime.end.p0(i64 8, ptr %5) #10
  br label %33

33:                                               ; preds = %12, %2
  ret void
}