; Function Attrs: mustprogress nounwind uwtable
define void @_ZN4LIEF2PE7RsaInfoC2ERKS1_(ptr noundef nonnull writeonly align 8 captures(none) dereferenceable(8) %0, ptr noundef nonnull readonly align 8 captures(none) dereferenceable(8) %1) unnamed_addr #1 align 2 {
  %3 = load ptr, ptr %1, align 8, !tbaa !14
  %.not = icmp eq ptr %3, null
  br i1 %.not, label %13, label %4

4:                                                ; preds = %2
  %5 = tail call noalias noundef nonnull dereferenceable(232) ptr @_Znwm(i64 noundef 232) #9
  tail call void @llvm.memset.p0.i64(ptr noundef nonnull align 16 dereferenceable(232) %5, i8 0, i64 232, i1 false)
  tail call void @mbedtls_rsa_init(ptr noundef nonnull %5) #10
  %6 = getelementptr inbounds nuw i8, ptr %3, i64 224
  %7 = load i32, ptr %6, align 8, !tbaa !3
  %8 = getelementptr inbounds nuw i8, ptr %3, i64 228
  %9 = load i32, ptr %8, align 4, !tbaa !13
  %10 = tail call i32 @mbedtls_rsa_set_padding(ptr noundef nonnull %5, i32 noundef %7, i32 noundef %9) #10
  %11 = tail call i32 @mbedtls_rsa_copy(ptr noundef nonnull %5, ptr noundef nonnull %3) #10
  %12 = tail call i32 @mbedtls_rsa_complete(ptr noundef nonnull %5) #10
  store ptr %5, ptr %0, align 8, !tbaa !14
  br label %13

13:                                               ; preds = %4, %2
  ret void
}